target datalayout = "e-m:e-p270:32:32-p271:32:32-p272:64:64-i64:64-i128:128-f80:128-n8:16:32:64-S128"
target triple = "x86_64-unknown-linux-gnu"

; Function Attrs: mustprogress nounwind uwtable
define linkonce_odr hidden noundef float @_ZNSt14numeric_limitsIfE8infinityEv() #0 comdat align 2 {
entry:
  ret float 0x7FF0000000000000
}

; Function Attrs: mustprogress nounwind uwtable
define linkonce_odr hidden noundef float @_ZNSt14numeric_limitsIfE3maxEv() #0 comdat align 2 {
entry:
  ret float 0x47EFFFFFE0000000
}

; Function Attrs: mustprogress nounwind uwtable
define noundef float @_ZN6google8protobuf2io17SafeDoubleToFloatEd(double noundef %value) #0 {
entry:
  %retval = alloca float, align 4
  %value.addr = alloca double, align 8
  store double %value, ptr %value.addr, align 8
  %0 = load double, ptr %value.addr, align 8
  %call = call noundef float @_ZNSt14numeric_limitsIfE3maxEv() #10
  %conv = fpext float %call to double
  %cmp = fcmp ogt double %0, %conv
  br i1 %cmp, label %if.then, label %if.else

if.then:                                          ; preds = %entry
  %1 = load double, ptr %value.addr, align 8
  %cmp1 = fcmp ole double %1, 0x47EFFFFFF0000000
  br i1 %cmp1, label %if.then2, label %if.end

if.then2:                                         ; preds = %if.then
  %call3 = call noundef float @_ZNSt14numeric_limitsIfE3maxEv() #10
  store float %call3, ptr %retval, align 4
  br label %return

if.end:                                           ; preds = %if.then
  %call4 = call noundef float @_ZNSt14numeric_limitsIfE8infinityEv() #10
  store float %call4, ptr %retval, align 4
  br label %return

if.else:                                          ; preds = %entry
  %2 = load double, ptr %value.addr, align 8
  %call5 = call noundef float @_ZNSt14numeric_limitsIfE3maxEv() #10
  %fneg = fneg float %call5
  %conv6 = fpext float %fneg to double
  %cmp7 = fcmp olt double %2, %conv6
  br i1 %cmp7, label %if.then8, label %if.else16

if.then8:                                         ; preds = %if.else
  %3 = load double, ptr %value.addr, align 8
  %cmp9 = fcmp oge double %3, 0xC7EFFFFFF0000000
  br i1 %cmp9, label %if.then10, label %if.end13

if.then10:                                        ; preds = %if.then8
  %call11 = call noundef float @_ZNSt14numeric_limitsIfE3maxEv() #10
  %fneg12 = fneg float %call11
  store float %fneg12, ptr %retval, align 4
  br label %return

if.end13:                                         ; preds = %if.then8
  %call14 = call noundef float @_ZNSt14numeric_limitsIfE8infinityEv() #10
  %fneg15 = fneg float %call14
  store float %fneg15, ptr %retval, align 4
  br label %return

if.else16:                                        ; preds = %if.else
  %4 = load double, ptr %value.addr, align 8
  %conv17 = fptrunc double %4 to float
  store float %conv17, ptr %retval, align 4
  br label %return

return:                                           ; preds = %if.else16, %if.end13, %if.then10, %if.end, %if.then2
  %5 = load float, ptr %retval, align 4
  ret float %5
}