; Function Attrs: mustprogress nofree norecurse nosync nounwind willreturn memory(none) uwtable
define noundef float @_ZN6google8protobuf2io17SafeDoubleToFloatEd(double noundef %value) local_unnamed_addr #0 {
entry:
  %cmp = fcmp ogt double %value, 0x47EFFFFFE0000000
  br i1 %cmp, label %if.then, label %if.else

if.then:                                          ; preds = %entry
  %cmp1 = fcmp ugt double %value, 0x47EFFFFFF0000000
  br i1 %cmp1, label %if.end, label %return

if.end:                                           ; preds = %if.then
  br label %return

if.else:                                          ; preds = %entry
  %cmp7 = fcmp olt double %value, 0xC7EFFFFFE0000000
  br i1 %cmp7, label %if.then8, label %if.else16

if.then8:                                         ; preds = %if.else
  %cmp9 = fcmp ult double %value, 0xC7EFFFFFF0000000
  br i1 %cmp9, label %if.end13, label %return

if.end13:                                         ; preds = %if.then8
  br label %return

if.else16:                                        ; preds = %if.else
  %conv17 = fptrunc double %value to float
  br label %return

return:                                           ; preds = %if.then8, %if.then, %if.else16, %if.end13, %if.end
  %retval.0 = phi float [ 0x7FF0000000000000, %if.end ], [ 0xFFF0000000000000, %if.end13 ], [ %conv17, %if.else16 ], [ 0x47EFFFFFE0000000, %if.then ], [ 0xC7EFFFFFE0000000, %if.then8 ]
  ret float %retval.0
}